; ModuleID = '20/61.c'
source_filename = "20/61.c"
target datalayout = "e-m:e-p270:32:32-p271:32:32-p272:64:64-i64:64-f80:128-n8:16:32:64-S128"
target triple = "x86_64-pc-linux-gnu"

@.str = private unnamed_addr constant [3 x i8] c"%s\00", align 1

; Function Attrs: noinline nounwind uwtable
define dso_local i32 @ascmax(i8* %0) #0 {
  %2 = alloca i8*, align 8
  %3 = alloca i32, align 4
  %4 = alloca i32, align 4
  %5 = alloca i8, align 1
  store i8* %0, i8** %2, align 8
  store i32 0, i32* %3, align 4
  %6 = load i8*, i8** %2, align 8
  %7 = getelementptr inbounds i8, i8* %6, i64 0
  %8 = load i8, i8* %7, align 1
  store i8 %8, i8* %5, align 1
  store i32 0, i32* %4, align 4
  br label %9

9:                                                ; preds = %36, %1
  %10 = load i8*, i8** %2, align 8
  %11 = load i32, i32* %4, align 4
  %12 = sext i32 %11 to i64
  %13 = getelementptr inbounds i8, i8* %10, i64 %12
  %14 = load i8, i8* %13, align 1
  %15 = sext i8 %14 to i32
  %16 = icmp ne i32 %15, 0
  br i1 %16, label %17, label %39

17:                                               ; preds = %9
  %18 = load i8*, i8** %2, align 8
  %19 = load i32, i32* %4, align 4
  %20 = sext i32 %19 to i64
  %21 = getelementptr inbounds i8, i8* %18, i64 %20
  %22 = load i8, i8* %21, align 1
  %23 = sext i8 %22 to i32
  %24 = load i8, i8* %5, align 1
  %25 = sext i8 %24 to i32
  %26 = icmp sgt i32 %23, %25
  br i1 %26, label %27, label %35

27:                                               ; preds = %17
  %28 = load i8*, i8** %2, align 8
  %29 = load i32, i32* %4, align 4
  %30 = sext i32 %29 to i64
  %31 = getelementptr inbounds i8, i8* %28, i64 %30
  %32 = load i8, i8* %31, align 1
  store i8 %32, i8* %5, align 1
  %33 = load i32, i32* %4, align 4
  %34 = add nsw i32 %33, 1
  store i32 %34, i32* %3, align 4
  br label %35

35:                                               ; preds = %27, %17
  br label %36

36:                                               ; preds = %35
  %37 = load i32, i32* %4, align 4
  %38 = add nsw i32 %37, 1
  store i32 %38, i32* %4, align 4
  br label %9

39:                                               ; preds = %9
  %40 = load i32, i32* %3, align 4
  ret i32 %40
}

; Function Attrs: noinline nounwind uwtable
define dso_local void @insert(i32 %0, i8* %1, i8* %2, i8* %3) #0 {
  %5 = alloca i32, align 4
  %6 = alloca i8*, align 8
  %7 = alloca i8*, align 8
  %8 = alloca i8*, align 8
  %9 = alloca i32, align 4
  store i32 %0, i32* %5, align 4
  store i8* %1, i8** %6, align 8
  store i8* %2, i8** %7, align 8
  store i8* %3, i8** %8, align 8
  store i32 0, i32* %9, align 4
  br label %10

10:                                               ; preds = %14, %4
  %11 = load i32, i32* %9, align 4
  %12 = load i32, i32* %5, align 4
  %13 = icmp slt i32 %11, %12
  br i1 %13, label %14, label %24

14:                                               ; preds = %10
  %15 = load i8*, i8** %6, align 8
  %16 = load i8, i8* %15, align 1
  %17 = load i8*, i8** %8, align 8
  store i8 %16, i8* %17, align 1
  %18 = load i8*, i8** %8, align 8
  %19 = getelementptr inbounds i8, i8* %18, i32 1
  store i8* %19, i8** %8, align 8
  %20 = load i8*, i8** %6, align 8
  %21 = getelementptr inbounds i8, i8* %20, i32 1
  store i8* %21, i8** %6, align 8
  %22 = load i32, i32* %9, align 4
  %23 = add nsw i32 %22, 1
  store i32 %23, i32* %9, align 4
  br label %10

24:                                               ; preds = %10
  br label %25

25:                                               ; preds = %36, %24
  %26 = load i32, i32* %9, align 4
  %27 = load i32, i32* %5, align 4
  %28 = icmp sge i32 %26, %27
  br i1 %28, label %29, label %34

29:                                               ; preds = %25
  %30 = load i32, i32* %9, align 4
  %31 = load i32, i32* %5, align 4
  %32 = add nsw i32 %31, 3
  %33 = icmp slt i32 %30, %32
  br label %34

34:                                               ; preds = %29, %25
  %35 = phi i1 [ false, %25 ], [ %33, %29 ]
  br i1 %35, label %36, label %46

36:                                               ; preds = %34
  %37 = load i8*, i8** %7, align 8
  %38 = load i8, i8* %37, align 1
  %39 = load i8*, i8** %8, align 8
  store i8 %38, i8* %39, align 1
  %40 = load i8*, i8** %8, align 8
  %41 = getelementptr inbounds i8, i8* %40, i32 1
  store i8* %41, i8** %8, align 8
  %42 = load i8*, i8** %7, align 8
  %43 = getelementptr inbounds i8, i8* %42, i32 1
  store i8* %43, i8** %7, align 8
  %44 = load i32, i32* %9, align 4
  %45 = add nsw i32 %44, 1
  store i32 %45, i32* %9, align 4
  br label %25

46:                                               ; preds = %34
  br label %47

47:                                               ; preds = %59, %46
  %48 = load i32, i32* %9, align 4
  %49 = load i32, i32* %5, align 4
  %50 = add nsw i32 %49, 3
  %51 = icmp sge i32 %48, %50
  br i1 %51, label %52, label %57

52:                                               ; preds = %47
  %53 = load i8*, i8** %6, align 8
  %54 = load i8, i8* %53, align 1
  %55 = sext i8 %54 to i32
  %56 = icmp ne i32 %55, 0
  br label %57

57:                                               ; preds = %52, %47
  %58 = phi i1 [ false, %47 ], [ %56, %52 ]
  br i1 %58, label %59, label %69

59:                                               ; preds = %57
  %60 = load i8*, i8** %6, align 8
  %61 = load i8, i8* %60, align 1
  %62 = load i8*, i8** %8, align 8
  store i8 %61, i8* %62, align 1
  %63 = load i8*, i8** %8, align 8
  %64 = getelementptr inbounds i8, i8* %63, i32 1
  store i8* %64, i8** %8, align 8
  %65 = load i8*, i8** %6, align 8
  %66 = getelementptr inbounds i8, i8* %65, i32 1
  store i8* %66, i8** %6, align 8
  %67 = load i32, i32* %9, align 4
  %68 = add nsw i32 %67, 1
  store i32 %68, i32* %9, align 4
  br label %47

69:                                               ; preds = %57
  %70 = load i8*, i8** %8, align 8
  store i8 0, i8* %70, align 1
  ret void
}

; Function Attrs: noinline nounwind uwtable
define dso_local void @main() #0 {
  %1 = alloca i32, align 4
  %2 = alloca [11 x i8], align 1
  %3 = alloca [4 x i8], align 1
  %4 = alloca [15 x i8], align 1
  br label %5

5:                                                ; preds = %9, %0
  %6 = getelementptr inbounds [11 x i8], [11 x i8]* %2, i64 0, i64 0
  %7 = call i32 (i8*, ...) @__isoc99_scanf(i8* getelementptr inbounds ([3 x i8], [3 x i8]* @.str, i64 0, i64 0), i8* %6)
  %8 = icmp ne i32 %7, -1
  br i1 %8, label %9, label %20

9:                                                ; preds = %5
  %10 = getelementptr inbounds [4 x i8], [4 x i8]* %3, i64 0, i64 0
  %11 = call i32 (i8*, ...) @__isoc99_scanf(i8* getelementptr inbounds ([3 x i8], [3 x i8]* @.str, i64 0, i64 0), i8* %10)
  %12 = getelementptr inbounds [11 x i8], [11 x i8]* %2, i64 0, i64 0
  %13 = call i32 @ascmax(i8* %12)
  store i32 %13, i32* %1, align 4
  %14 = load i32, i32* %1, align 4
  %15 = getelementptr inbounds [11 x i8], [11 x i8]* %2, i64 0, i64 0
  %16 = getelementptr inbounds [4 x i8], [4 x i8]* %3, i64 0, i64 0
  %17 = getelementptr inbounds [15 x i8], [15 x i8]* %4, i64 0, i64 0
  call void @insert(i32 %14, i8* %15, i8* %16, i8* %17)
  %18 = getelementptr inbounds [15 x i8], [15 x i8]* %4, i64 0, i64 0
  %19 = call i32 @puts(i8* %18)
  br label %5

20:                                               ; preds = %5
  ret void
}

declare dso_local i32 @__isoc99_scanf(i8*, ...) #1

declare dso_local i32 @puts(i8*) #1


!llvm.module.flags = !{!0}
!llvm.ident = !{!1}

!0 = !{i32 1, !"wchar_size", i32 4}
!1 = !{!"clang version 10.0.0-4ubuntu1 "}
